; Function Attrs: mustprogress uwtable
define void @_ZNK8facebook5velox4exec14FieldReference8toStringB5cxx11Eb(ptr noalias sret(%"class.std::__cxx11::basic_string") align 8 %agg.result, ptr noundef nonnull align 8 dereferenceable(484) %this, i1 noundef zeroext %recursive) unnamed_addr #0 align 2 personality ptr @__gxx_personality_v0 {
entry:
  %out = alloca %"class.std::__cxx11::basic_stringstream", align 8
  call void @_ZNSt7__cxx1118basic_stringstreamIcSt11char_traitsIcESaIcEEC1Ev(ptr noundef nonnull align 8 dereferenceable(128) %out)
  %inputs_ = getelementptr inbounds i8, ptr %this, i64 24
  %0 = load ptr, ptr %inputs_, align 8
  %_M_finish.i.i = getelementptr inbounds i8, ptr %this, i64 32
  %1 = load ptr, ptr %_M_finish.i.i, align 8
  %cmp.i.i = icmp ne ptr %0, %1
  %brmerge.not = and i1 %cmp.i.i, %recursive
  br i1 %brmerge.not, label %if.then, label %if.end

if.then:                                          ; preds = %entry
  invoke void @_ZNK8facebook5velox4exec4Expr12appendInputsERNSt7__cxx1118basic_stringstreamIcSt11char_traitsIcESaIcEEE(ptr noundef nonnull align 8 dereferenceable(442) %this, ptr noundef nonnull align 8 dereferenceable(128) %out)
          to label %invoke.cont unwind label %lpad

invoke.cont:                                      ; preds = %if.then
  %add.ptr = getelementptr inbounds i8, ptr %out, i64 16
  %call3 = invoke noundef nonnull align 8 dereferenceable(8) ptr @_ZStlsISt11char_traitsIcEERSt13basic_ostreamIcT_ES5_PKc(ptr noundef nonnull align 8 dereferenceable(8) %add.ptr, ptr noundef nonnull @.str)
          to label %if.end unwind label %lpad

lpad:                                             ; preds = %invoke.cont7, %if.end, %invoke.cont, %if.then
  %2 = landingpad { ptr, i32 }
          cleanup
  call void @_ZNSt7__cxx1118basic_stringstreamIcSt11char_traitsIcESaIcEED1Ev(ptr noundef nonnull align 8 dereferenceable(128) %out) #16
  resume { ptr, i32 } %2

if.end:                                           ; preds = %entry, %invoke.cont
  %add.ptr4 = getelementptr inbounds i8, ptr %out, i64 16
  %name_.i = getelementptr inbounds i8, ptr %this, i64 48
  %call8 = invoke noundef nonnull align 8 dereferenceable(8) ptr @_ZStlsIcSt11char_traitsIcESaIcEERSt13basic_ostreamIT_T0_ES7_RKNSt7__cxx1112basic_stringIS4_S5_T1_EE(ptr noundef nonnull align 8 dereferenceable(8) %add.ptr4, ptr noundef nonnull align 8 dereferenceable(32) %name_.i)
          to label %invoke.cont7 unwind label %lpad

invoke.cont7:                                     ; preds = %if.end
  invoke void @_ZNKSt7__cxx1118basic_stringstreamIcSt11char_traitsIcESaIcEE3strEv(ptr sret(%"class.std::__cxx11::basic_string") align 8 %agg.result, ptr noundef nonnull align 8 dereferenceable(128) %out)
          to label %invoke.cont9 unwind label %lpad

invoke.cont9:                                     ; preds = %invoke.cont7
  call void @_ZNSt7__cxx1118basic_stringstreamIcSt11char_traitsIcESaIcEED1Ev(ptr noundef nonnull align 8 dereferenceable(128) %out) #16
  ret void
}